target datalayout = "e-m:e-p270:32:32-p271:32:32-p272:64:64-i64:64-i128:128-f80:128-n8:16:32:64-S128"
target triple = "x86_64-pc-linux-gnu"

%struct.Vec_Int_t_ = type { i32, i32, ptr }
%struct.Gia_Obj_t_ = type <{ i64, i32 }>
%struct.Gia_Man_t_ = type { ptr, ptr, i32, i32, i32, i32, ptr, ptr, i32, i32, i32, ptr, ptr, %struct.Vec_Int_t_, %struct.Vec_Int_t_, i32, i32, i32, %struct.Vec_Int_t_, ptr, ptr, ptr, i32, i32, i32, i32, ptr, ptr, ptr, ptr, ptr, i32, i32, ptr, i32, ptr, ptr, ptr, ptr, ptr, ptr, ptr, ptr, ptr, ptr, ptr, ptr, ptr, ptr, ptr, ptr, ptr, ptr, %struct.Vec_Int_t_, %struct.Vec_Int_t_, ptr, ptr, ptr, ptr, ptr, ptr, ptr, ptr, ptr, ptr, ptr, ptr, ptr, ptr, ptr, ptr, ptr, ptr, ptr, ptr, ptr, i32, float, float, ptr, ptr, i32, ptr, ptr, ptr, ptr, ptr, ptr, ptr, ptr, ptr, ptr, ptr, ptr, ptr, ptr, ptr, i64, i64, ptr, ptr, i32, i32, i32, i32, i32, i32, i32, i32, i32, i32, i32, i32, ptr, ptr, ptr, ptr, ptr, ptr, ptr, ptr, i32, i32, i32, ptr, i32, i32, ptr, ptr, ptr, ptr, ptr, ptr, i32, i32, ptr, %struct.Vec_Int_t_, %struct.Vec_Int_t_, %struct.Vec_Int_t_, ptr, ptr, ptr, i32, i32, i32, i32, ptr, ptr, ptr, ptr, ptr }

; Function Attrs: inlinehint nounwind uwtable
define internal i32 @Gia_ObjFaninC1(ptr noundef %0) #4 {
  %2 = alloca ptr, align 8
  store ptr %0, ptr %2, align 8, !tbaa !35
  %3 = load ptr, ptr %2, align 8, !tbaa !35
  %4 = load i64, ptr %3, align 4
  %5 = lshr i64 %4, 61
  %6 = and i64 %5, 1
  %7 = trunc i64 %6 to i32
  ret i32 %7
}

; Function Attrs: inlinehint nounwind uwtable
define internal i32 @Gia_ObjFaninC0(ptr noundef %0) #4 {
  %2 = alloca ptr, align 8
  store ptr %0, ptr %2, align 8, !tbaa !35
  %3 = load ptr, ptr %2, align 8, !tbaa !35
  %4 = load i64, ptr %3, align 4
  %5 = lshr i64 %4, 29
  %6 = and i64 %5, 1
  %7 = trunc i64 %6 to i32
  ret i32 %7
}

; Function Attrs: inlinehint nounwind uwtable
define internal ptr @Gia_ObjFanin1(ptr noundef %0) #4 {
  %2 = alloca ptr, align 8
  store ptr %0, ptr %2, align 8, !tbaa !35
  %3 = load ptr, ptr %2, align 8, !tbaa !35
  %4 = load ptr, ptr %2, align 8, !tbaa !35
  %5 = load i64, ptr %4, align 4
  %6 = lshr i64 %5, 32
  %7 = and i64 %6, 536870911
  %8 = trunc i64 %7 to i32
  %9 = sext i32 %8 to i64
  %10 = sub i64 0, %9
  %11 = getelementptr inbounds %struct.Gia_Obj_t_, ptr %3, i64 %10
  ret ptr %11
}

; Function Attrs: inlinehint nounwind uwtable
define internal ptr @Gia_ObjFanin0(ptr noundef %0) #4 {
  %2 = alloca ptr, align 8
  store ptr %0, ptr %2, align 8, !tbaa !35
  %3 = load ptr, ptr %2, align 8, !tbaa !35
  %4 = load ptr, ptr %2, align 8, !tbaa !35
  %5 = load i64, ptr %4, align 4
  %6 = and i64 %5, 536870911
  %7 = trunc i64 %6 to i32
  %8 = sext i32 %7 to i64
  %9 = sub i64 0, %8
  %10 = getelementptr inbounds %struct.Gia_Obj_t_, ptr %3, i64 %9
  ret ptr %10
}

; Function Attrs: inlinehint nounwind uwtable
define internal ptr @Gia_ManObj(ptr noundef %0, i32 noundef %1) #4 {
  %3 = alloca ptr, align 8
  %4 = alloca i32, align 4
  store ptr %0, ptr %3, align 8, !tbaa !34
  store i32 %1, ptr %4, align 4, !tbaa !27
  %5 = load ptr, ptr %3, align 8, !tbaa !34
  %6 = getelementptr inbounds nuw %struct.Gia_Man_t_, ptr %5, i32 0, i32 6
  %7 = load ptr, ptr %6, align 8, !tbaa !39
  %8 = load i32, ptr %4, align 4, !tbaa !27
  %9 = sext i32 %8 to i64
  %10 = getelementptr inbounds %struct.Gia_Obj_t_, ptr %7, i64 %9
  ret ptr %10
}

; Function Attrs: inlinehint nounwind uwtable
define internal i32 @Vec_IntEntry(ptr noundef %0, i32 noundef %1) #4 {
  %3 = alloca ptr, align 8
  %4 = alloca i32, align 4
  store ptr %0, ptr %3, align 8, !tbaa !10
  store i32 %1, ptr %4, align 4, !tbaa !27
  %5 = load ptr, ptr %3, align 8, !tbaa !10
  %6 = getelementptr inbounds nuw %struct.Vec_Int_t_, ptr %5, i32 0, i32 2
  %7 = load ptr, ptr %6, align 8, !tbaa !33
  %8 = load i32, ptr %4, align 4, !tbaa !27
  %9 = sext i32 %8 to i64
  %10 = getelementptr inbounds i32, ptr %7, i64 %9
  %11 = load i32, ptr %10, align 4, !tbaa !27
  ret i32 %11
}

; Function Attrs: inlinehint nounwind uwtable
define internal i32 @Vec_IntSize(ptr noundef %0) #4 {
  %2 = alloca ptr, align 8
  store ptr %0, ptr %2, align 8, !tbaa !10
  %3 = load ptr, ptr %2, align 8, !tbaa !10
  %4 = getelementptr inbounds nuw %struct.Vec_Int_t_, ptr %3, i32 0, i32 1
  %5 = load i32, ptr %4, align 4, !tbaa !29
  ret i32 %5
}

; Function Attrs: nounwind uwtable
define void @Txs_ManPropagatePrio(ptr noundef %0, ptr noundef %1, ptr noundef %2) #0 {
  %4 = alloca ptr, align 8
  %5 = alloca ptr, align 8
  %6 = alloca ptr, align 8
  %7 = alloca ptr, align 8
  %8 = alloca ptr, align 8
  %9 = alloca ptr, align 8
  %10 = alloca i32, align 4
  %11 = alloca i32, align 4
  %12 = alloca i32, align 4
  store ptr %0, ptr %4, align 8, !tbaa !34
  store ptr %1, ptr %5, align 8, !tbaa !10
  store ptr %2, ptr %6, align 8, !tbaa !10
  call void @llvm.lifetime.start.p0(i64 8, ptr %7) #8
  call void @llvm.lifetime.start.p0(i64 8, ptr %8) #8
  call void @llvm.lifetime.start.p0(i64 8, ptr %9) #8
  call void @llvm.lifetime.start.p0(i64 4, ptr %10) #8
  call void @llvm.lifetime.start.p0(i64 4, ptr %11) #8
  call void @llvm.lifetime.start.p0(i64 4, ptr %12) #8
  store i32 0, ptr %10, align 4, !tbaa !27
  br label %13

13:                                               ; preds = %162, %3
  %14 = load i32, ptr %10, align 4, !tbaa !27
  %15 = load ptr, ptr %5, align 8, !tbaa !10
  %16 = call i32 @Vec_IntSize(ptr noundef %15)
  %17 = icmp slt i32 %14, %16
  br i1 %17, label %18, label %25

18:                                               ; preds = %13
  %19 = load ptr, ptr %4, align 8, !tbaa !34
  %20 = load ptr, ptr %5, align 8, !tbaa !10
  %21 = load i32, ptr %10, align 4, !tbaa !27
  %22 = call i32 @Vec_IntEntry(ptr noundef %20, i32 noundef %21)
  %23 = call ptr @Gia_ManObj(ptr noundef %19, i32 noundef %22)
  store ptr %23, ptr %7, align 8, !tbaa !35
  %24 = icmp ne ptr %23, null
  br label %25

25:                                               ; preds = %18, %13
  %26 = phi i1 [ false, %13 ], [ %24, %18 ]
  br i1 %26, label %27, label %165

27:                                               ; preds = %25
  %28 = load ptr, ptr %7, align 8, !tbaa !35
  %29 = call ptr @Gia_ObjFanin0(ptr noundef %28)
  store ptr %29, ptr %8, align 8, !tbaa !35
  %30 = load ptr, ptr %7, align 8, !tbaa !35
  %31 = call ptr @Gia_ObjFanin1(ptr noundef %30)
  store ptr %31, ptr %9, align 8, !tbaa !35
  %32 = load ptr, ptr %7, align 8, !tbaa !35
  %33 = load i64, ptr %32, align 4
  %34 = lshr i64 %33, 30
  %35 = and i64 %34, 1
  %36 = trunc i64 %35 to i32
  %37 = icmp ne i32 %36, 0
  br i1 %37, label %38, label %87

38:                                               ; preds = %27
  %39 = load ptr, ptr %8, align 8, !tbaa !35
  %40 = getelementptr inbounds nuw %struct.Gia_Obj_t_, ptr %39, i32 0, i32 1
  %41 = load i32, ptr %40, align 4, !tbaa !37
  %42 = icmp eq i32 %41, 2147483647
  br i1 %42, label %43, label %49

43:                                               ; preds = %38
  %44 = load ptr, ptr %9, align 8, !tbaa !35
  %45 = getelementptr inbounds nuw %struct.Gia_Obj_t_, ptr %44, i32 0, i32 1
  %46 = load i32, ptr %45, align 4, !tbaa !37
  %47 = load ptr, ptr %7, align 8, !tbaa !35
  %48 = getelementptr inbounds nuw %struct.Gia_Obj_t_, ptr %47, i32 0, i32 1
  store i32 %46, ptr %48, align 4, !tbaa !37
  br label %86

49:                                               ; preds = %38
  %50 = load ptr, ptr %9, align 8, !tbaa !35
  %51 = getelementptr inbounds nuw %struct.Gia_Obj_t_, ptr %50, i32 0, i32 1
  %52 = load i32, ptr %51, align 4, !tbaa !37
  %53 = icmp eq i32 %52, 2147483647
  br i1 %53, label %54, label %60

54:                                               ; preds = %49
  %55 = load ptr, ptr %8, align 8, !tbaa !35
  %56 = getelementptr inbounds nuw %struct.Gia_Obj_t_, ptr %55, i32 0, i32 1
  %57 = load i32, ptr %56, align 4, !tbaa !37
  %58 = load ptr, ptr %7, align 8, !tbaa !35
  %59 = getelementptr inbounds nuw %struct.Gia_Obj_t_, ptr %58, i32 0, i32 1
  store i32 %57, ptr %59, align 4, !tbaa !37
  br label %85

60:                                               ; preds = %49
  %61 = load ptr, ptr %6, align 8, !tbaa !10
  %62 = load ptr, ptr %8, align 8, !tbaa !35
  %63 = getelementptr inbounds nuw %struct.Gia_Obj_t_, ptr %62, i32 0, i32 1
  %64 = load i32, ptr %63, align 4, !tbaa !37
  %65 = call i32 @Vec_IntEntry(ptr noundef %61, i32 noundef %64)
  %66 = load ptr, ptr %6, align 8, !tbaa !10
  %67 = load ptr, ptr %9, align 8, !tbaa !35
  %68 = getelementptr inbounds nuw %struct.Gia_Obj_t_, ptr %67, i32 0, i32 1
  %69 = load i32, ptr %68, align 4, !tbaa !37
  %70 = call i32 @Vec_IntEntry(ptr noundef %66, i32 noundef %69)
  %71 = icmp slt i32 %65, %70
  br i1 %71, label %72, label %78

72:                                               ; preds = %60
  %73 = load ptr, ptr %8, align 8, !tbaa !35
  %74 = getelementptr inbounds nuw %struct.Gia_Obj_t_, ptr %73, i32 0, i32 1
  %75 = load i32, ptr %74, align 4, !tbaa !37
  %76 = load ptr, ptr %7, align 8, !tbaa !35
  %77 = getelementptr inbounds nuw %struct.Gia_Obj_t_, ptr %76, i32 0, i32 1
  store i32 %75, ptr %77, align 4, !tbaa !37
  br label %84

78:                                               ; preds = %60
  %79 = load ptr, ptr %9, align 8, !tbaa !35
  %80 = getelementptr inbounds nuw %struct.Gia_Obj_t_, ptr %79, i32 0, i32 1
  %81 = load i32, ptr %80, align 4, !tbaa !37
  %82 = load ptr, ptr %7, align 8, !tbaa !35
  %83 = getelementptr inbounds nuw %struct.Gia_Obj_t_, ptr %82, i32 0, i32 1
  store i32 %81, ptr %83, align 4, !tbaa !37
  br label %84

84:                                               ; preds = %78, %72
  br label %85

85:                                               ; preds = %84, %54
  br label %86

86:                                               ; preds = %85, %43
  br label %162

87:                                               ; preds = %27
  %88 = load ptr, ptr %8, align 8, !tbaa !35
  %89 = load i64, ptr %88, align 4
  %90 = lshr i64 %89, 30
  %91 = and i64 %90, 1
  %92 = trunc i64 %91 to i32
  %93 = load ptr, ptr %7, align 8, !tbaa !35
  %94 = call i32 @Gia_ObjFaninC0(ptr noundef %93)
  %95 = xor i32 %92, %94
  store i32 %95, ptr %11, align 4, !tbaa !27
  %96 = load ptr, ptr %9, align 8, !tbaa !35
  %97 = load i64, ptr %96, align 4
  %98 = lshr i64 %97, 30
  %99 = and i64 %98, 1
  %100 = trunc i64 %99 to i32
  %101 = load ptr, ptr %7, align 8, !tbaa !35
  %102 = call i32 @Gia_ObjFaninC1(ptr noundef %101)
  %103 = xor i32 %100, %102
  store i32 %103, ptr %12, align 4, !tbaa !27
  %104 = load i32, ptr %11, align 4, !tbaa !27
  %105 = icmp ne i32 %104, 0
  br i1 %105, label %106, label %112

106:                                              ; preds = %87
  %107 = load ptr, ptr %9, align 8, !tbaa !35
  %108 = getelementptr inbounds nuw %struct.Gia_Obj_t_, ptr %107, i32 0, i32 1
  %109 = load i32, ptr %108, align 4, !tbaa !37
  %110 = load ptr, ptr %7, align 8, !tbaa !35
  %111 = getelementptr inbounds nuw %struct.Gia_Obj_t_, ptr %110, i32 0, i32 1
  store i32 %109, ptr %111, align 4, !tbaa !37
  br label %161

112:                                              ; preds = %87
  %113 = load i32, ptr %12, align 4, !tbaa !27
  %114 = icmp ne i32 %113, 0
  br i1 %114, label %115, label %121

115:                                              ; preds = %112
  %116 = load ptr, ptr %8, align 8, !tbaa !35
  %117 = getelementptr inbounds nuw %struct.Gia_Obj_t_, ptr %116, i32 0, i32 1
  %118 = load i32, ptr %117, align 4, !tbaa !37
  %119 = load ptr, ptr %7, align 8, !tbaa !35
  %120 = getelementptr inbounds nuw %struct.Gia_Obj_t_, ptr %119, i32 0, i32 1
  store i32 %118, ptr %120, align 4, !tbaa !37
  br label %160

121:                                              ; preds = %112
  %122 = load ptr, ptr %8, align 8, !tbaa !35
  %123 = getelementptr inbounds nuw %struct.Gia_Obj_t_, ptr %122, i32 0, i32 1
  %124 = load i32, ptr %123, align 4, !tbaa !37
  %125 = icmp eq i32 %124, 2147483647
  br i1 %125, label %131, label %126

126:                                              ; preds = %121
  %127 = load ptr, ptr %9, align 8, !tbaa !35
  %128 = getelementptr inbounds nuw %struct.Gia_Obj_t_, ptr %127, i32 0, i32 1
  %129 = load i32, ptr %128, align 4, !tbaa !37
  %130 = icmp eq i32 %129, 2147483647
  br i1 %130, label %131, label %134

131:                                              ; preds = %126, %121
  %132 = load ptr, ptr %7, align 8, !tbaa !35
  %133 = getelementptr inbounds nuw %struct.Gia_Obj_t_, ptr %132, i32 0, i32 1
  store i32 2147483647, ptr %133, align 4, !tbaa !37
  br label %159

134:                                              ; preds = %126
  %135 = load ptr, ptr %6, align 8, !tbaa !10
  %136 = load ptr, ptr %8, align 8, !tbaa !35
  %137 = getelementptr inbounds nuw %struct.Gia_Obj_t_, ptr %136, i32 0, i32 1
  %138 = load i32, ptr %137, align 4, !tbaa !37
  %139 = call i32 @Vec_IntEntry(ptr noundef %135, i32 noundef %138)
  %140 = load ptr, ptr %6, align 8, !tbaa !10
  %141 = load ptr, ptr %9, align 8, !tbaa !35
  %142 = getelementptr inbounds nuw %struct.Gia_Obj_t_, ptr %141, i32 0, i32 1
  %143 = load i32, ptr %142, align 4, !tbaa !37
  %144 = call i32 @Vec_IntEntry(ptr noundef %140, i32 noundef %143)
  %145 = icmp sge i32 %139, %144
  br i1 %145, label %146, label %152

146:                                              ; preds = %134
  %147 = load ptr, ptr %8, align 8, !tbaa !35
  %148 = getelementptr inbounds nuw %struct.Gia_Obj_t_, ptr %147, i32 0, i32 1
  %149 = load i32, ptr %148, align 4, !tbaa !37
  %150 = load ptr, ptr %7, align 8, !tbaa !35
  %151 = getelementptr inbounds nuw %struct.Gia_Obj_t_, ptr %150, i32 0, i32 1
  store i32 %149, ptr %151, align 4, !tbaa !37
  br label %158

152:                                              ; preds = %134
  %153 = load ptr, ptr %9, align 8, !tbaa !35
  %154 = getelementptr inbounds nuw %struct.Gia_Obj_t_, ptr %153, i32 0, i32 1
  %155 = load i32, ptr %154, align 4, !tbaa !37
  %156 = load ptr, ptr %7, align 8, !tbaa !35
  %157 = getelementptr inbounds nuw %struct.Gia_Obj_t_, ptr %156, i32 0, i32 1
  store i32 %155, ptr %157, align 4, !tbaa !37
  br label %158

158:                                              ; preds = %152, %146
  br label %159

159:                                              ; preds = %158, %131
  br label %160

160:                                              ; preds = %159, %115
  br label %161

161:                                              ; preds = %160, %106
  br label %162

162:                                              ; preds = %161, %86
  %163 = load i32, ptr %10, align 4, !tbaa !27
  %164 = add nsw i32 %163, 1
  store i32 %164, ptr %10, align 4, !tbaa !27
  br label %13, !llvm.loop !69

165:                                              ; preds = %25
  call void @llvm.lifetime.end.p0(i64 4, ptr %12) #8
  call void @llvm.lifetime.end.p0(i64 4, ptr %11) #8
  call void @llvm.lifetime.end.p0(i64 4, ptr %10) #8
  call void @llvm.lifetime.end.p0(i64 8, ptr %9) #8
  call void @llvm.lifetime.end.p0(i64 8, ptr %8) #8
  call void @llvm.lifetime.end.p0(i64 8, ptr %7) #8
  ret void
}