; Function Attrs: nofree norecurse nosync nounwind memory(readwrite, inaccessiblemem: none) uwtable
define void @Txs_ManPropagatePrio(ptr noundef readonly captures(none) %0, ptr noundef readonly captures(none) %1, ptr noundef readonly captures(none) %2) local_unnamed_addr #4 {
  %4 = getelementptr i8, ptr %1, i64 4
  %.val = load i32, ptr %4, align 4, !tbaa !12
  %5 = icmp sgt i32 %.val, 0
  br i1 %5, label %.lr.ph, label %.critedge

.lr.ph:                                           ; preds = %3
  %6 = getelementptr i8, ptr %1, i64 8
  %.val54 = load ptr, ptr %6, align 8, !tbaa !17
  %7 = getelementptr i8, ptr %0, i64 32
  %.val55 = load ptr, ptr %7, align 8, !tbaa !29
  %.not = icmp eq ptr %.val55, null
  %8 = getelementptr i8, ptr %2, i64 8
  br i1 %.not, label %.critedge, label %.lr.ph.split.preheader

.lr.ph.split.preheader:                           ; preds = %.lr.ph
  %wide.trip.count = zext nneg i32 %.val to i64
  br label %.lr.ph.split

.lr.ph.split:                                     ; preds = %.lr.ph.split.preheader, %87
  %indvars.iv = phi i64 [ 0, %.lr.ph.split.preheader ], [ %indvars.iv.next, %87 ]
  %9 = getelementptr inbounds nuw i32, ptr %.val54, i64 %indvars.iv
  %10 = load i32, ptr %9, align 4, !tbaa !46
  %11 = sext i32 %10 to i64
  %12 = getelementptr inbounds %struct.Gia_Obj_t_, ptr %.val55, i64 %11
  %13 = load i64, ptr %12, align 4
  %14 = and i64 %13, 536870911
  %15 = sub nsw i64 0, %14
  %16 = getelementptr inbounds %struct.Gia_Obj_t_, ptr %12, i64 %15
  %17 = lshr i64 %13, 32
  %18 = and i64 %17, 536870911
  %19 = sub nsw i64 0, %18
  %20 = getelementptr inbounds %struct.Gia_Obj_t_, ptr %12, i64 %19
  %21 = and i64 %13, 1073741824
  %.not46 = icmp eq i64 %21, 0
  br i1 %.not46, label %45, label %22

22:                                               ; preds = %.lr.ph.split
  %23 = getelementptr inbounds nuw i8, ptr %16, i64 8
  %24 = load i32, ptr %23, align 4, !tbaa !27
  %25 = icmp eq i32 %24, 2147483647
  %26 = getelementptr inbounds nuw i8, ptr %20, i64 8
  %27 = load i32, ptr %26, align 4, !tbaa !27
  br i1 %25, label %28, label %30

28:                                               ; preds = %22
  %29 = getelementptr inbounds nuw i8, ptr %12, i64 8
  store i32 %27, ptr %29, align 4, !tbaa !27
  br label %87

30:                                               ; preds = %22
  %31 = icmp eq i32 %27, 2147483647
  br i1 %31, label %32, label %34

32:                                               ; preds = %30
  %33 = getelementptr inbounds nuw i8, ptr %12, i64 8
  store i32 %24, ptr %33, align 4, !tbaa !27
  br label %87

34:                                               ; preds = %30
  %.val53 = load ptr, ptr %8, align 8, !tbaa !17
  %35 = sext i32 %24 to i64
  %36 = getelementptr inbounds i32, ptr %.val53, i64 %35
  %37 = load i32, ptr %36, align 4, !tbaa !46
  %38 = sext i32 %27 to i64
  %39 = getelementptr inbounds i32, ptr %.val53, i64 %38
  %40 = load i32, ptr %39, align 4, !tbaa !46
  %41 = icmp slt i32 %37, %40
  %42 = getelementptr inbounds nuw i8, ptr %12, i64 8
  br i1 %41, label %43, label %44

43:                                               ; preds = %34
  store i32 %24, ptr %42, align 4, !tbaa !27
  br label %87

44:                                               ; preds = %34
  store i32 %27, ptr %42, align 4, !tbaa !27
  br label %87

45:                                               ; preds = %.lr.ph.split
  %46 = load i64, ptr %16, align 4
  %47 = trunc i64 %46 to i32
  %48 = lshr i32 %47, 30
  %49 = trunc i64 %13 to i32
  %50 = lshr i32 %49, 29
  %51 = xor i32 %48, %50
  %52 = and i32 %51, 1
  %.not47 = icmp eq i32 %52, 0
  br i1 %.not47, label %57, label %53

53:                                               ; preds = %45
  %54 = getelementptr inbounds nuw i8, ptr %20, i64 8
  %55 = load i32, ptr %54, align 4, !tbaa !27
  %56 = getelementptr inbounds nuw i8, ptr %12, i64 8
  store i32 %55, ptr %56, align 4, !tbaa !27
  br label %87

57:                                               ; preds = %45
  %58 = lshr i64 %13, 61
  %59 = trunc nuw nsw i64 %58 to i32
  %60 = load i64, ptr %20, align 4
  %61 = trunc i64 %60 to i32
  %62 = lshr i32 %61, 30
  %63 = xor i32 %62, %59
  %64 = and i32 %63, 1
  %.not48 = icmp eq i32 %64, 0
  %65 = getelementptr inbounds nuw i8, ptr %16, i64 8
  %66 = load i32, ptr %65, align 4, !tbaa !27
  br i1 %.not48, label %69, label %67

67:                                               ; preds = %57
  %68 = getelementptr inbounds nuw i8, ptr %12, i64 8
  store i32 %66, ptr %68, align 4, !tbaa !27
  br label %87

69:                                               ; preds = %57
  %70 = icmp eq i32 %66, 2147483647
  br i1 %70, label %75, label %71

71:                                               ; preds = %69
  %72 = getelementptr inbounds nuw i8, ptr %20, i64 8
  %73 = load i32, ptr %72, align 4, !tbaa !27
  %74 = icmp eq i32 %73, 2147483647
  br i1 %74, label %75, label %77

75:                                               ; preds = %71, %69
  %76 = getelementptr inbounds nuw i8, ptr %12, i64 8
  store i32 2147483647, ptr %76, align 4, !tbaa !27
  br label %87

77:                                               ; preds = %71
  %.val51 = load ptr, ptr %8, align 8, !tbaa !17
  %78 = sext i32 %66 to i64
  %79 = getelementptr inbounds i32, ptr %.val51, i64 %78
  %80 = load i32, ptr %79, align 4, !tbaa !46
  %81 = sext i32 %73 to i64
  %82 = getelementptr inbounds i32, ptr %.val51, i64 %81
  %83 = load i32, ptr %82, align 4, !tbaa !46
  %.not49 = icmp slt i32 %80, %83
  %84 = getelementptr inbounds nuw i8, ptr %12, i64 8
  br i1 %.not49, label %86, label %85

85:                                               ; preds = %77
  store i32 %66, ptr %84, align 4, !tbaa !27
  br label %87

86:                                               ; preds = %77
  store i32 %73, ptr %84, align 4, !tbaa !27
  br label %87

87:                                               ; preds = %53, %75, %86, %85, %67, %28, %43, %44, %32
  %indvars.iv.next = add nuw nsw i64 %indvars.iv, 1
  %exitcond.not = icmp eq i64 %indvars.iv.next, %wide.trip.count
  br i1 %exitcond.not, label %.critedge, label %.lr.ph.split, !llvm.loop !61

.critedge:                                        ; preds = %87, %.lr.ph, %3
  ret void
}